; Function Attrs: mustprogress uwtable
define internal noundef zeroext i1 @"_ZNSt17_Function_handlerIFvSt17basic_string_viewIcSt11char_traitsIcEEEZZN3nix13copyStorePathERNS5_5StoreES7_RKNS5_9StorePathENS5_10RepairFlagENS5_13CheckSigsFlagEENK3$_0clERNS5_4SinkEEUlS3_E_E10_M_managerERSt9_Any_dataRKSI_St18_Manager_operation"(ptr nocapture noundef nonnull align 8 dereferenceable(16) %0, ptr nocapture noundef nonnull readonly align 8 dereferenceable(16) %1, i32 noundef %2) #5 align 2 {
  switch i32 %2, label %"_ZNSt14_Function_base13_Base_managerIZZN3nix13copyStorePathERNS1_5StoreES3_RKNS1_9StorePathENS1_10RepairFlagENS1_13CheckSigsFlagEENK3$_0clERNS1_4SinkEEUlSt17basic_string_viewIcSt11char_traitsIcEEE_E10_M_managerERSt9_Any_dataRKSI_St18_Manager_operation.exit" [
    i32 0, label %4
    i32 1, label %5
    i32 3, label %8
    i32 2, label %6
  ]

4:                                                ; preds = %3
  store ptr @"_ZTIZZN3nix13copyStorePathERNS_5StoreES1_RKNS_9StorePathENS_10RepairFlagENS_13CheckSigsFlagEENK3$_0clERNS_4SinkEEUlSt17basic_string_viewIcSt11char_traitsIcEEE_", ptr %0, align 8
  br label %"_ZNSt14_Function_base13_Base_managerIZZN3nix13copyStorePathERNS1_5StoreES3_RKNS1_9StorePathENS1_10RepairFlagENS1_13CheckSigsFlagEENK3$_0clERNS1_4SinkEEUlSt17basic_string_viewIcSt11char_traitsIcEEE_E10_M_managerERSt9_Any_dataRKSI_St18_Manager_operation.exit"

5:                                                ; preds = %3
  %.val = load ptr, ptr %1, align 8
  store ptr %.val, ptr %0, align 8
  br label %"_ZNSt14_Function_base13_Base_managerIZZN3nix13copyStorePathERNS1_5StoreES3_RKNS1_9StorePathENS1_10RepairFlagENS1_13CheckSigsFlagEENK3$_0clERNS1_4SinkEEUlSt17basic_string_viewIcSt11char_traitsIcEEE_E10_M_managerERSt9_Any_dataRKSI_St18_Manager_operation.exit"

6:                                                ; preds = %3
  %.val6 = load ptr, ptr %1, align 8
  %7 = tail call noalias noundef nonnull dereferenceable(24) ptr @_Znwm(i64 noundef 24) #33
  tail call void @llvm.memcpy.p0.p0.i64(ptr noundef nonnull align 16 dereferenceable(24) %7, ptr noundef nonnull align 8 dereferenceable(24) %.val6, i64 24, i1 false)
  store ptr %7, ptr %0, align 8
  br label %"_ZNSt14_Function_base13_Base_managerIZZN3nix13copyStorePathERNS1_5StoreES3_RKNS1_9StorePathENS1_10RepairFlagENS1_13CheckSigsFlagEENK3$_0clERNS1_4SinkEEUlSt17basic_string_viewIcSt11char_traitsIcEEE_E10_M_managerERSt9_Any_dataRKSI_St18_Manager_operation.exit"

8:                                                ; preds = %3
  %.val7.i = load ptr, ptr %0, align 8
  %9 = icmp eq ptr %.val7.i, null
  br i1 %9, label %"_ZNSt14_Function_base13_Base_managerIZZN3nix13copyStorePathERNS1_5StoreES3_RKNS1_9StorePathENS1_10RepairFlagENS1_13CheckSigsFlagEENK3$_0clERNS1_4SinkEEUlSt17basic_string_viewIcSt11char_traitsIcEEE_E10_M_managerERSt9_Any_dataRKSI_St18_Manager_operation.exit", label %10

10:                                               ; preds = %8
  tail call void @_ZdlPv(ptr noundef nonnull %.val7.i) #34
  br label %"_ZNSt14_Function_base13_Base_managerIZZN3nix13copyStorePathERNS1_5StoreES3_RKNS1_9StorePathENS1_10RepairFlagENS1_13CheckSigsFlagEENK3$_0clERNS1_4SinkEEUlSt17basic_string_viewIcSt11char_traitsIcEEE_E10_M_managerERSt9_Any_dataRKSI_St18_Manager_operation.exit"

"_ZNSt14_Function_base13_Base_managerIZZN3nix13copyStorePathERNS1_5StoreES3_RKNS1_9StorePathENS1_10RepairFlagENS1_13CheckSigsFlagEENK3$_0clERNS1_4SinkEEUlSt17basic_string_viewIcSt11char_traitsIcEEE_E10_M_managerERSt9_Any_dataRKSI_St18_Manager_operation.exit": ; preds = %3, %10, %8, %6, %5, %4
  ret i1 false
}